target datalayout = "e-m:e-p270:32:32-p271:32:32-p272:64:64-i64:64-i128:128-f80:128-n8:16:32:64-S128"
target triple = "x86_64-pc-linux-gnu"

%struct._Node = type { %union.anon.2 }
%union.anon.2 = type { %struct.BagNode }
%struct.BagNode = type { i32, i32, ptr, ptr, i32, %union.anon.4, i32, i32, i32, i32, i32 }
%union.anon.4 = type { %struct.anon.7 }
%struct.anon.7 = type { ptr, ptr }
%struct.anon.3 = type { i32, i32, ptr, ptr }
%struct.CtypeNode = type { i32, i32, ptr, i32, i32, i32 }

; Function Attrs: nounwind uwtable
define internal ptr @node_new() #0 {
  %1 = alloca ptr, align 8
  %2 = alloca ptr, align 8
  %3 = alloca i32, align 4
  call void @llvm.lifetime.start.p0(i64 8, ptr %2) #8
  %4 = call noalias ptr @malloc(i64 noundef 72) #9
  store ptr %4, ptr %2, align 8, !tbaa !111
  %5 = load ptr, ptr %2, align 8, !tbaa !111
  %6 = icmp eq ptr %5, null
  br i1 %6, label %7, label %8

7:                                                ; preds = %0
  store ptr null, ptr %1, align 8
  store i32 1, ptr %3, align 4
  br label %11

8:                                                ; preds = %0
  %9 = load ptr, ptr %2, align 8, !tbaa !111
  call void @llvm.memset.p0.i64(ptr align 8 %9, i8 0, i64 72, i1 false)
  %10 = load ptr, ptr %2, align 8, !tbaa !111
  store ptr %10, ptr %1, align 8
  store i32 1, ptr %3, align 4
  br label %11

11:                                               ; preds = %8, %7
  call void @llvm.lifetime.end.p0(i64 8, ptr %2) #8
  %12 = load ptr, ptr %1, align 8
  ret ptr %12
}

; Function Attrs: nounwind uwtable
define internal ptr @node_new_ctype(i32 noundef %0, i32 noundef %1, i32 noundef %2) #0 {
  %4 = alloca ptr, align 8
  %5 = alloca i32, align 4
  %6 = alloca i32, align 4
  %7 = alloca i32, align 4
  %8 = alloca ptr, align 8
  %9 = alloca i32, align 4
  store i32 %0, ptr %5, align 4, !tbaa !10
  store i32 %1, ptr %6, align 4, !tbaa !10
  store i32 %2, ptr %7, align 4, !tbaa !10
  call void @llvm.lifetime.start.p0(i64 8, ptr %8) #8
  %10 = call ptr @node_new()
  store ptr %10, ptr %8, align 8, !tbaa !111
  %11 = load ptr, ptr %8, align 8, !tbaa !111
  %12 = icmp eq ptr %11, null
  br i1 %12, label %13, label %14

13:                                               ; preds = %3
  store ptr null, ptr %4, align 8
  store i32 1, ptr %9, align 4
  br label %67

14:                                               ; preds = %3
  %15 = load ptr, ptr %8, align 8, !tbaa !111
  %16 = getelementptr inbounds nuw %struct._Node, ptr %15, i32 0, i32 0
  %17 = getelementptr inbounds nuw %struct.anon.3, ptr %16, i32 0, i32 0
  store i32 2, ptr %17, align 8, !tbaa !12
  %18 = load i32, ptr %5, align 4, !tbaa !10
  %19 = load ptr, ptr %8, align 8, !tbaa !111
  %20 = getelementptr inbounds nuw %struct._Node, ptr %19, i32 0, i32 0
  %21 = getelementptr inbounds nuw %struct.CtypeNode, ptr %20, i32 0, i32 3
  store i32 %18, ptr %21, align 8, !tbaa !12
  %22 = load i32, ptr %6, align 4, !tbaa !10
  %23 = load ptr, ptr %8, align 8, !tbaa !111
  %24 = getelementptr inbounds nuw %struct._Node, ptr %23, i32 0, i32 0
  %25 = getelementptr inbounds nuw %struct.CtypeNode, ptr %24, i32 0, i32 4
  store i32 %22, ptr %25, align 4, !tbaa !12
  %26 = load i32, ptr %5, align 4, !tbaa !10
  %27 = icmp sge i32 %26, 0
  br i1 %27, label %28, label %60

28:                                               ; preds = %14
  %29 = load i32, ptr %5, align 4, !tbaa !10
  %30 = icmp slt i32 %29, 14
  br i1 %30, label %31, label %35

31:                                               ; preds = %28
  %32 = load i32, ptr %7, align 4, !tbaa !10
  %33 = and i32 %32, 524288
  %34 = icmp ne i32 %33, 0
  br i1 %34, label %58, label %35

35:                                               ; preds = %31, %28
  %36 = load i32, ptr %5, align 4, !tbaa !10
  %37 = icmp eq i32 %36, 12
  br i1 %37, label %38, label %42

38:                                               ; preds = %35
  %39 = load i32, ptr %7, align 4, !tbaa !10
  %40 = and i32 %39, 589824
  %41 = icmp ne i32 %40, 0
  br i1 %41, label %58, label %42

42:                                               ; preds = %38, %35
  %43 = load i32, ptr %5, align 4, !tbaa !10
  %44 = icmp eq i32 %43, 4
  br i1 %44, label %45, label %49

45:                                               ; preds = %42
  %46 = load i32, ptr %7, align 4, !tbaa !10
  %47 = and i32 %46, 655360
  %48 = icmp ne i32 %47, 0
  br i1 %48, label %58, label %49

49:                                               ; preds = %45, %42
  %50 = load i32, ptr %5, align 4, !tbaa !10
  %51 = icmp eq i32 %50, 9
  br i1 %51, label %52, label %56

52:                                               ; preds = %49
  %53 = load i32, ptr %7, align 4, !tbaa !10
  %54 = and i32 %53, 786432
  %55 = icmp ne i32 %54, 0
  br label %56

56:                                               ; preds = %52, %49
  %57 = phi i1 [ false, %49 ], [ %55, %52 ]
  br label %58

58:                                               ; preds = %56, %45, %38, %31
  %59 = phi i1 [ true, %45 ], [ true, %38 ], [ true, %31 ], [ %57, %56 ]
  br label %60

60:                                               ; preds = %58, %14
  %61 = phi i1 [ false, %14 ], [ %59, %58 ]
  %62 = zext i1 %61 to i32
  %63 = load ptr, ptr %8, align 8, !tbaa !111
  %64 = getelementptr inbounds nuw %struct._Node, ptr %63, i32 0, i32 0
  %65 = getelementptr inbounds nuw %struct.CtypeNode, ptr %64, i32 0, i32 5
  store i32 %62, ptr %65, align 8, !tbaa !12
  %66 = load ptr, ptr %8, align 8, !tbaa !111
  store ptr %66, ptr %4, align 8
  store i32 1, ptr %9, align 4
  br label %67

67:                                               ; preds = %60, %13
  call void @llvm.lifetime.end.p0(i64 8, ptr %8) #8
  %68 = load ptr, ptr %4, align 8
  ret ptr %68
}